target datalayout = "e-m:e-p270:32:32-p271:32:32-p272:64:64-i64:64-i128:128-f80:128-n8:16:32:64-S128"
target triple = "x86_64-unknown-linux-gnu"

%struct.ChardevClass = type { %struct.ObjectClass, i8, i8, ptr, ptr, ptr, ptr, ptr, ptr, ptr, ptr, ptr, ptr, ptr, ptr, ptr, ptr, ptr, ptr }
%struct.ObjectClass = type { ptr, ptr, [4 x ptr], [4 x ptr], ptr, ptr }

@.str = private unnamed_addr constant [10 x i8] c"/chardevs\00", align 1
@.str.2 = private unnamed_addr constant [23 x i8] c"../qemu/chardev/char.c\00", align 1
@.str.4 = private unnamed_addr constant [8 x i8] c"chardev\00", align 1
@__func__.qmp_add_client_char = private unnamed_addr constant [20 x i8] c"qmp_add_client_char\00", align 1
@.str.101 = private unnamed_addr constant [25 x i8] c"protocol '%s' is invalid\00", align 1
@.str.102 = private unnamed_addr constant [21 x i8] c"failed to add client\00", align 1
@.str.104 = private unnamed_addr constant [101 x i8] c"/home/dtcxzyw/WorkSpace/Projects/compilers/llvm-opt-benchmark/bench/qemu/qemu/include/chardev/char.h\00", align 1
@__func__.CHARDEV_GET_CLASS = private unnamed_addr constant [18 x i8] c"CHARDEV_GET_CLASS\00", align 1
@__func__.CHARDEV = private unnamed_addr constant [8 x i8] c"CHARDEV\00", align 1

; Function Attrs: nounwind sspstrong uwtable
define internal ptr @CHARDEV_GET_CLASS(ptr noundef %obj) #0 {
entry:
  %obj.addr = alloca ptr, align 8
  store ptr %obj, ptr %obj.addr, align 8
  %0 = load ptr, ptr %obj.addr, align 8
  %call = call ptr @object_get_class(ptr noundef %0)
  %call1 = call ptr @object_class_dynamic_cast_assert(ptr noundef %call, ptr noundef @.str.4, ptr noundef @.str.104, i32 noundef 231, ptr noundef @__func__.CHARDEV_GET_CLASS)
  ret ptr %call1
}

; Function Attrs: nounwind sspstrong uwtable
define internal ptr @CHARDEV(ptr noundef %obj) #0 {
entry:
  %obj.addr = alloca ptr, align 8
  store ptr %obj, ptr %obj.addr, align 8
  %0 = load ptr, ptr %obj.addr, align 8
  %call = call ptr @object_dynamic_cast_assert(ptr noundef %0, ptr noundef @.str.4, ptr noundef @.str.104, i32 noundef 231, ptr noundef @__func__.CHARDEV)
  ret ptr %call
}

; Function Attrs: nounwind sspstrong uwtable
define dso_local ptr @get_chardevs_root() #0 {
entry:
  %call = call ptr @object_get_root()
  %call1 = call ptr @container_get(ptr noundef %call, ptr noundef @.str)
  ret ptr %call1
}

; Function Attrs: nounwind sspstrong uwtable
define dso_local i32 @qemu_chr_add_client(ptr noundef %s, i32 noundef %fd) #0 {
entry:
  %s.addr = alloca ptr, align 8
  %fd.addr = alloca i32, align 4
  store ptr %s, ptr %s.addr, align 8
  store i32 %fd, ptr %fd.addr, align 4
  %0 = load ptr, ptr %s.addr, align 8
  %call = call ptr @CHARDEV_GET_CLASS(ptr noundef %0)
  %chr_add_client = getelementptr inbounds %struct.ChardevClass, ptr %call, i32 0, i32 12
  %1 = load ptr, ptr %chr_add_client, align 8
  %tobool = icmp ne ptr %1, null
  br i1 %tobool, label %cond.true, label %cond.false

cond.true:                                        ; preds = %entry
  %2 = load ptr, ptr %s.addr, align 8
  %call1 = call ptr @CHARDEV_GET_CLASS(ptr noundef %2)
  %chr_add_client2 = getelementptr inbounds %struct.ChardevClass, ptr %call1, i32 0, i32 12
  %3 = load ptr, ptr %chr_add_client2, align 8
  %4 = load ptr, ptr %s.addr, align 8
  %5 = load i32, ptr %fd.addr, align 4
  %call3 = call i32 %3(ptr noundef %4, i32 noundef %5)
  br label %cond.end

cond.false:                                       ; preds = %entry
  br label %cond.end

cond.end:                                         ; preds = %cond.false, %cond.true
  %cond = phi i32 [ %call3, %cond.true ], [ -1, %cond.false ]
  ret i32 %cond
}

; Function Attrs: nounwind sspstrong uwtable
define dso_local ptr @qemu_chr_find(ptr noundef %name) #0 {
entry:
  %name.addr = alloca ptr, align 8
  %obj = alloca ptr, align 8
  store ptr %name, ptr %name.addr, align 8
  %call = call ptr @get_chardevs_root()
  %0 = load ptr, ptr %name.addr, align 8
  %call1 = call ptr @object_resolve_path_component(ptr noundef %call, ptr noundef %0)
  store ptr %call1, ptr %obj, align 8
  %1 = load ptr, ptr %obj, align 8
  %tobool = icmp ne ptr %1, null
  br i1 %tobool, label %cond.true, label %cond.false

cond.true:                                        ; preds = %entry
  %2 = load ptr, ptr %obj, align 8
  %call2 = call ptr @CHARDEV(ptr noundef %2)
  br label %cond.end

cond.false:                                       ; preds = %entry
  br label %cond.end

cond.end:                                         ; preds = %cond.false, %cond.true
  %cond = phi ptr [ %call2, %cond.true ], [ null, %cond.false ]
  ret ptr %cond
}

; Function Attrs: nounwind sspstrong uwtable
define dso_local zeroext i1 @qmp_add_client_char(i32 noundef %fd, i1 noundef zeroext %has_skipauth, i1 noundef zeroext %skipauth, i1 noundef zeroext %has_tls, i1 noundef zeroext %tls, ptr noundef %protocol, ptr noundef %errp) #0 {
entry:
  %retval = alloca i1, align 1
  %fd.addr = alloca i32, align 4
  %has_skipauth.addr = alloca i8, align 1
  %skipauth.addr = alloca i8, align 1
  %has_tls.addr = alloca i8, align 1
  %tls.addr = alloca i8, align 1
  %protocol.addr = alloca ptr, align 8
  %errp.addr = alloca ptr, align 8
  %s = alloca ptr, align 8
  store i32 %fd, ptr %fd.addr, align 4
  %frombool = zext i1 %has_skipauth to i8
  store i8 %frombool, ptr %has_skipauth.addr, align 1
  %frombool1 = zext i1 %skipauth to i8
  store i8 %frombool1, ptr %skipauth.addr, align 1
  %frombool2 = zext i1 %has_tls to i8
  store i8 %frombool2, ptr %has_tls.addr, align 1
  %frombool3 = zext i1 %tls to i8
  store i8 %frombool3, ptr %tls.addr, align 1
  store ptr %protocol, ptr %protocol.addr, align 8
  store ptr %errp, ptr %errp.addr, align 8
  %0 = load ptr, ptr %protocol.addr, align 8
  %call = call ptr @qemu_chr_find(ptr noundef %0)
  store ptr %call, ptr %s, align 8
  %1 = load ptr, ptr %s, align 8
  %tobool = icmp ne ptr %1, null
  br i1 %tobool, label %if.end, label %if.then

if.then:                                          ; preds = %entry
  %2 = load ptr, ptr %errp.addr, align 8
  %3 = load ptr, ptr %protocol.addr, align 8
  call void (ptr, ptr, i32, ptr, ptr, ...) @error_setg_internal(ptr noundef %2, ptr noundef @.str.2, i32 noundef 1180, ptr noundef @__func__.qmp_add_client_char, ptr noundef @.str.101, ptr noundef %3)
  store i1 false, ptr %retval, align 1
  br label %return

if.end:                                           ; preds = %entry
  %4 = load ptr, ptr %s, align 8
  %5 = load i32, ptr %fd.addr, align 4
  %call4 = call i32 @qemu_chr_add_client(ptr noundef %4, i32 noundef %5)
  %cmp = icmp slt i32 %call4, 0
  br i1 %cmp, label %if.then5, label %if.end6

if.then5:                                         ; preds = %if.end
  %6 = load ptr, ptr %errp.addr, align 8
  call void (ptr, ptr, i32, ptr, ptr, ...) @error_setg_internal(ptr noundef %6, ptr noundef @.str.2, i32 noundef 1184, ptr noundef @__func__.qmp_add_client_char, ptr noundef @.str.102)
  store i1 false, ptr %retval, align 1
  br label %return

if.end6:                                          ; preds = %if.end
  store i1 true, ptr %retval, align 1
  br label %return

return:                                           ; preds = %if.end6, %if.then5, %if.then
  %7 = load i1, ptr %retval, align 1
  ret i1 %7
}