; Function Attrs: nounwind sspstrong uwtable
define dso_local noundef zeroext i1 @qmp_add_client_char(i32 noundef %fd, i1 noundef zeroext %has_skipauth, i1 noundef zeroext %skipauth, i1 noundef zeroext %has_tls, i1 noundef zeroext %tls, ptr noundef %protocol, ptr noundef %errp) local_unnamed_addr #0 {
entry:
  %call.i.i = tail call ptr @object_get_root() #13
  %call1.i.i = tail call ptr @container_get(ptr noundef %call.i.i, ptr noundef nonnull @.str) #13
  %call1.i = tail call ptr @object_resolve_path_component(ptr noundef %call1.i.i, ptr noundef %protocol) #13
  %tobool.not.i = icmp eq ptr %call1.i, null
  br i1 %tobool.not.i, label %if.then, label %qemu_chr_find.exit

qemu_chr_find.exit:                               ; preds = %entry
  %call.i2.i = tail call ptr @object_dynamic_cast_assert(ptr noundef nonnull %call1.i, ptr noundef nonnull @.str.4, ptr noundef nonnull @.str.104, i32 noundef 231, ptr noundef nonnull @__func__.CHARDEV) #13
  %tobool.not = icmp eq ptr %call.i2.i, null
  br i1 %tobool.not, label %if.then, label %if.end

if.then:                                          ; preds = %entry, %qemu_chr_find.exit
  tail call void (ptr, ptr, i32, ptr, ptr, ...) @error_setg_internal(ptr noundef %errp, ptr noundef nonnull @.str.2, i32 noundef 1180, ptr noundef nonnull @__func__.qmp_add_client_char, ptr noundef nonnull @.str.101, ptr noundef %protocol) #13
  br label %return

if.end:                                           ; preds = %qemu_chr_find.exit
  %call.i.i4 = tail call ptr @object_get_class(ptr noundef nonnull %call.i2.i) #13
  %call1.i.i5 = tail call ptr @object_class_dynamic_cast_assert(ptr noundef %call.i.i4, ptr noundef nonnull @.str.4, ptr noundef nonnull @.str.104, i32 noundef 231, ptr noundef nonnull @__func__.CHARDEV_GET_CLASS) #13
  %chr_add_client.i = getelementptr inbounds nuw i8, ptr %call1.i.i5, i64 176
  %0 = load ptr, ptr %chr_add_client.i, align 8
  %tobool.not.i6 = icmp eq ptr %0, null
  br i1 %tobool.not.i6, label %if.then5, label %qemu_chr_add_client.exit

qemu_chr_add_client.exit:                         ; preds = %if.end
  %call.i3.i = tail call ptr @object_get_class(ptr noundef nonnull %call.i2.i) #13
  %call1.i4.i = tail call ptr @object_class_dynamic_cast_assert(ptr noundef %call.i3.i, ptr noundef nonnull @.str.4, ptr noundef nonnull @.str.104, i32 noundef 231, ptr noundef nonnull @__func__.CHARDEV_GET_CLASS) #13
  %chr_add_client2.i = getelementptr inbounds nuw i8, ptr %call1.i4.i, i64 176
  %1 = load ptr, ptr %chr_add_client2.i, align 8
  %call3.i = tail call i32 %1(ptr noundef nonnull %call.i2.i, i32 noundef %fd) #13
  %cmp = icmp slt i32 %call3.i, 0
  br i1 %cmp, label %if.then5, label %return

if.then5:                                         ; preds = %if.end, %qemu_chr_add_client.exit
  tail call void (ptr, ptr, i32, ptr, ptr, ...) @error_setg_internal(ptr noundef %errp, ptr noundef nonnull @.str.2, i32 noundef 1184, ptr noundef nonnull @__func__.qmp_add_client_char, ptr noundef nonnull @.str.102) #13
  br label %return

return:                                           ; preds = %qemu_chr_add_client.exit, %if.then5, %if.then
  %retval.0 = phi i1 [ false, %if.then5 ], [ false, %if.then ], [ true, %qemu_chr_add_client.exit ]
  ret i1 %retval.0
}